; Function Attrs: mustprogress nounwind uwtable
define internal void @_ZN9grpc_core12_GLOBAL__N_120Chttp2ServerListener20ConfigFetcherWatcherD0Ev(ptr noundef nonnull align 8 dereferenceable(16) %this) unnamed_addr #5 align 2 personality ptr @__gxx_personality_v0 {
entry:
  store ptr getelementptr inbounds ({ [6 x ptr] }, ptr @_ZTVN9grpc_core12_GLOBAL__N_120Chttp2ServerListener20ConfigFetcherWatcherE, i64 0, i32 0, i64 2), ptr %this, align 8
  %listener_.i = getelementptr inbounds i8, ptr %this, i64 8
  %listener_.val.i = load ptr, ptr %listener_.i, align 8
  %cmp.not.i.i = icmp eq ptr %listener_.val.i, null
  br i1 %cmp.not.i.i, label %_ZN9grpc_core12_GLOBAL__N_120Chttp2ServerListener20ConfigFetcherWatcherD2Ev.exit, label %if.then.i.i

if.then.i.i:                                      ; preds = %entry
  %0 = getelementptr i8, ptr %listener_.val.i, i64 16
  %.val.i.i = load ptr, ptr %0, align 8
  invoke void @_Z21grpc_tcp_server_unrefP15grpc_tcp_server(ptr noundef %.val.i.i)
          to label %_ZN9grpc_core12_GLOBAL__N_120Chttp2ServerListener20ConfigFetcherWatcherD2Ev.exit unwind label %terminate.lpad.i.i

terminate.lpad.i.i:                               ; preds = %if.then.i.i
  %1 = landingpad { ptr, i32 }
          catch ptr null
  %2 = extractvalue { ptr, i32 } %1, 0
  tail call void @__clang_call_terminate(ptr %2) #24
  unreachable

_ZN9grpc_core12_GLOBAL__N_120Chttp2ServerListener20ConfigFetcherWatcherD2Ev.exit: ; preds = %entry, %if.then.i.i
  tail call void @_ZdlPv(ptr noundef nonnull %this) #28
  ret void
}